target datalayout = "e-m:e-p270:32:32-p271:32:32-p272:64:64-i64:64-i128:128-f80:128-n8:16:32:64-S128"
target triple = "x86_64-pc-linux-gnu"

%"class.testing::internal::TestFactoryBase" = type { ptr }
%"class.testing::internal::ParameterizedTestFactory.174" = type <{ %"class.testing::internal::TestFactoryBase", i32, [4 x i8] }>

@_ZN7testing18WithParamInterfaceIiE10parameter_E = linkonce_odr dso_local global ptr null, comdat, align 8
@_ZTVN7testing18WithParamInterfaceIiEE = linkonce_odr dso_local unnamed_addr constant { [4 x ptr] } { [4 x ptr] [ptr null, ptr @_ZTIN7testing18WithParamInterfaceIiEE, ptr @_ZN7testing18WithParamInterfaceIiED2Ev, ptr @_ZN7testing18WithParamInterfaceIiED0Ev] }, comdat, align 8

; Function Attrs: inlinehint mustprogress nounwind uwtable
define linkonce_odr dso_local void @_ZN7testing18WithParamInterfaceIiEC2Ev(ptr noundef nonnull align 8 dereferenceable(8) %0) unnamed_addr #7 comdat align 2 {
  %2 = alloca ptr, align 8
  store ptr %0, ptr %2, align 8, !tbaa !723
  %3 = load ptr, ptr %2, align 8
  store ptr getelementptr inbounds inrange(-16, 16) ({ [4 x ptr] }, ptr @_ZTVN7testing18WithParamInterfaceIiEE, i32 0, i32 0, i32 2), ptr %3, align 8, !tbaa !25
  ret void
}

; Function Attrs: inlinehint mustprogress uwtable
define linkonce_odr dso_local void @_ZN7testing13TestWithParamIiEC2Ev(ptr noundef nonnull align 8 dereferenceable(24) %0) unnamed_addr #13 comdat align 2 {
  %2 = alloca ptr, align 8
  store ptr %0, ptr %2, align 8, !tbaa !721
  %3 = load ptr, ptr %2, align 8
  call void @_ZN7testing4TestC2Ev(ptr noundef nonnull align 8 dereferenceable(16) %3)
  %4 = getelementptr inbounds i8, ptr %3, i64 16
  call void @_ZN7testing18WithParamInterfaceIiEC2Ev(ptr noundef nonnull align 8 dereferenceable(8) %4) #3
  store ptr getelementptr inbounds inrange(-16, 48) ({ [8 x ptr], [4 x ptr] }, ptr @_ZTVN7testing13TestWithParamIiEE, i32 0, i32 0, i32 2), ptr %3, align 8, !tbaa !25
  %5 = getelementptr inbounds i8, ptr %3, i64 16
  store ptr getelementptr inbounds inrange(-16, 16) ({ [8 x ptr], [4 x ptr] }, ptr @_ZTVN7testing13TestWithParamIiEE, i32 0, i32 1, i32 2), ptr %5, align 8, !tbaa !25
  ret void
}

; Function Attrs: inlinehint mustprogress uwtable
define internal void @_ZN12_GLOBAL__N_116SequenceLockTestC2Ev(ptr noundef nonnull align 8 dereferenceable(24) %0) unnamed_addr #13 align 2 {
  %2 = alloca ptr, align 8
  store ptr %0, ptr %2, align 8, !tbaa !719
  %3 = load ptr, ptr %2, align 8
  call void @_ZN7testing13TestWithParamIiEC2Ev(ptr noundef nonnull align 8 dereferenceable(24) %3)
  store ptr getelementptr inbounds inrange(-16, 48) ({ [8 x ptr], [4 x ptr] }, ptr @_ZTVN12_GLOBAL__N_116SequenceLockTestE, i32 0, i32 0, i32 2), ptr %3, align 8, !tbaa !25
  %4 = getelementptr inbounds i8, ptr %3, i64 16
  store ptr getelementptr inbounds inrange(-16, 16) ({ [8 x ptr], [4 x ptr] }, ptr @_ZTVN12_GLOBAL__N_116SequenceLockTestE, i32 0, i32 1, i32 2), ptr %4, align 8, !tbaa !25
  ret void
}

; Function Attrs: mustprogress uwtable
define internal void @_ZN12_GLOBAL__N_136SequenceLockTest_SingleThreaded_TestC2Ev(ptr noundef nonnull align 8 dereferenceable(24) %0) unnamed_addr #4 align 2 {
  %2 = alloca ptr, align 8
  store ptr %0, ptr %2, align 8, !tbaa !717
  %3 = load ptr, ptr %2, align 8
  call void @_ZN12_GLOBAL__N_116SequenceLockTestC2Ev(ptr noundef nonnull align 8 dereferenceable(24) %3)
  store ptr getelementptr inbounds inrange(-16, 48) ({ [8 x ptr], [4 x ptr] }, ptr @_ZTVN12_GLOBAL__N_136SequenceLockTest_SingleThreaded_TestE, i32 0, i32 0, i32 2), ptr %3, align 8, !tbaa !25
  %4 = getelementptr inbounds i8, ptr %3, i64 16
  store ptr getelementptr inbounds inrange(-16, 16) ({ [8 x ptr], [4 x ptr] }, ptr @_ZTVN12_GLOBAL__N_136SequenceLockTest_SingleThreaded_TestE, i32 0, i32 1, i32 2), ptr %4, align 8, !tbaa !25
  ret void
}

; Function Attrs: mustprogress nounwind uwtable
define linkonce_odr dso_local void @_ZN7testing18WithParamInterfaceIiE8SetParamEPKi(ptr noundef %0) #6 comdat align 2 {
  %2 = alloca ptr, align 8
  store ptr %0, ptr %2, align 8, !tbaa !117
  %3 = load ptr, ptr %2, align 8, !tbaa !117
  store ptr %3, ptr @_ZN7testing18WithParamInterfaceIiE10parameter_E, align 8, !tbaa !117
  ret void
}

; Function Attrs: mustprogress uwtable
define internal noundef ptr @_ZN7testing8internal24ParameterizedTestFactoryIN12_GLOBAL__N_136SequenceLockTest_SingleThreaded_TestEE10CreateTestEv(ptr noundef nonnull align 8 dereferenceable(12) %0) unnamed_addr #4 align 2 personality ptr @__gxx_personality_v0 {
  %2 = alloca ptr, align 8
  %3 = alloca ptr, align 8
  %4 = alloca i32, align 4
  store ptr %0, ptr %2, align 8, !tbaa !712
  %5 = load ptr, ptr %2, align 8
  %6 = getelementptr inbounds nuw %"class.testing::internal::ParameterizedTestFactory.174", ptr %5, i32 0, i32 1
  call void @_ZN7testing18WithParamInterfaceIiE8SetParamEPKi(ptr noundef %6)
  %7 = call noalias noundef nonnull ptr @_Znwm(i64 noundef 24) #28
  invoke void @_ZN12_GLOBAL__N_136SequenceLockTest_SingleThreaded_TestC2Ev(ptr noundef nonnull align 8 dereferenceable(24) %7)
          to label %8 unwind label %9

8:                                                ; preds = %1
  ret ptr %7

9:                                                ; preds = %1
  %10 = landingpad { ptr, i32 }
          cleanup
  %11 = extractvalue { ptr, i32 } %10, 0
  store ptr %11, ptr %3, align 8
  %12 = extractvalue { ptr, i32 } %10, 1
  store i32 %12, ptr %4, align 4
  call void @_ZdlPvm(ptr noundef %7, i64 noundef 24) #30
  br label %13

13:                                               ; preds = %9
  %14 = load ptr, ptr %3, align 8
  %15 = load i32, ptr %4, align 4
  %16 = insertvalue { ptr, i32 } poison, ptr %14, 0
  %17 = insertvalue { ptr, i32 } %16, i32 %15, 1
  resume { ptr, i32 } %17
}